; Function Attrs: nounwind uwtable
define range(i32 -1, 1) i32 @H5PTset_index(i64 noundef %0, i64 noundef %1) local_unnamed_addr #0 {
  %3 = load i32, ptr @H5PT_ptable_id_type, align 4, !tbaa !3
  %4 = tail call ptr @H5Iobject_verify(i64 noundef %0, i32 noundef %3) #7
  %5 = icmp eq ptr %4, null
  br i1 %5, label %H5PT_set_index.exit, label %6

6:                                                ; preds = %2
  %7 = getelementptr inbounds nuw i8, ptr %4, i64 24
  %8 = load i64, ptr %7, align 8, !tbaa !21
  %9 = icmp ult i64 %1, %8
  br i1 %9, label %10, label %H5PT_set_index.exit

10:                                               ; preds = %6
  %11 = getelementptr inbounds nuw i8, ptr %4, i64 16
  store i64 %1, ptr %11, align 8, !tbaa !20
  br label %H5PT_set_index.exit

H5PT_set_index.exit:                              ; preds = %10, %6, %2
  %.0 = phi i32 [ -1, %2 ], [ 0, %10 ], [ -1, %6 ]
  ret i32 %.0
}